target datalayout = "e-m:e-p270:32:32-p271:32:32-p272:64:64-i64:64-i128:128-f80:128-n8:16:32:64-S128"
target triple = "x86_64-unknown-linux-gnu"

; Function Attrs: mustprogress uwtable
define void @_ZN6icu_7516DateIntervalInfo18setIntervalPatternERKNS_13UnicodeStringE19UCalendarDateFieldsS3_R10UErrorCode(ptr noundef nonnull align 8 dereferenceable(88) %this, ptr noundef nonnull align 8 dereferenceable(64) %skeleton, i32 noundef %lrgDiffCalUnit, ptr noundef nonnull align 8 dereferenceable(64) %intervalPattern, ptr noundef nonnull align 4 dereferenceable(4) %status) #1 align 2 {
entry:
  %this.addr = alloca ptr, align 8
  %skeleton.addr = alloca ptr, align 8
  %lrgDiffCalUnit.addr = alloca i32, align 4
  %intervalPattern.addr = alloca ptr, align 8
  %status.addr = alloca ptr, align 8
  store ptr %this, ptr %this.addr, align 8
  store ptr %skeleton, ptr %skeleton.addr, align 8
  store i32 %lrgDiffCalUnit, ptr %lrgDiffCalUnit.addr, align 4
  store ptr %intervalPattern, ptr %intervalPattern.addr, align 8
  store ptr %status, ptr %status.addr, align 8
  %this1 = load ptr, ptr %this.addr, align 8
  %0 = load i32, ptr %lrgDiffCalUnit.addr, align 4
  %cmp = icmp eq i32 %0, 11
  br i1 %cmp, label %if.then, label %if.else

if.then:                                          ; preds = %entry
  %1 = load ptr, ptr %skeleton.addr, align 8
  %2 = load ptr, ptr %intervalPattern.addr, align 8
  %3 = load ptr, ptr %status.addr, align 8
  call void @_ZN6icu_7516DateIntervalInfo28setIntervalPatternInternallyERKNS_13UnicodeStringE19UCalendarDateFieldsS3_R10UErrorCode(ptr noundef nonnull align 8 dereferenceable(88) %this1, ptr noundef nonnull align 8 dereferenceable(64) %1, i32 noundef 9, ptr noundef nonnull align 8 dereferenceable(64) %2, ptr noundef nonnull align 4 dereferenceable(4) %3)
  %4 = load ptr, ptr %skeleton.addr, align 8
  %5 = load ptr, ptr %intervalPattern.addr, align 8
  %6 = load ptr, ptr %status.addr, align 8
  call void @_ZN6icu_7516DateIntervalInfo28setIntervalPatternInternallyERKNS_13UnicodeStringE19UCalendarDateFieldsS3_R10UErrorCode(ptr noundef nonnull align 8 dereferenceable(88) %this1, ptr noundef nonnull align 8 dereferenceable(64) %4, i32 noundef 10, ptr noundef nonnull align 8 dereferenceable(64) %5, ptr noundef nonnull align 4 dereferenceable(4) %6)
  br label %if.end6

if.else:                                          ; preds = %entry
  %7 = load i32, ptr %lrgDiffCalUnit.addr, align 4
  %cmp2 = icmp eq i32 %7, 5
  br i1 %cmp2, label %if.then4, label %lor.lhs.false

lor.lhs.false:                                    ; preds = %if.else
  %8 = load i32, ptr %lrgDiffCalUnit.addr, align 4
  %cmp3 = icmp eq i32 %8, 7
  br i1 %cmp3, label %if.then4, label %if.else5

if.then4:                                         ; preds = %lor.lhs.false, %if.else
  %9 = load ptr, ptr %skeleton.addr, align 8
  %10 = load ptr, ptr %intervalPattern.addr, align 8
  %11 = load ptr, ptr %status.addr, align 8
  call void @_ZN6icu_7516DateIntervalInfo28setIntervalPatternInternallyERKNS_13UnicodeStringE19UCalendarDateFieldsS3_R10UErrorCode(ptr noundef nonnull align 8 dereferenceable(88) %this1, ptr noundef nonnull align 8 dereferenceable(64) %9, i32 noundef 5, ptr noundef nonnull align 8 dereferenceable(64) %10, ptr noundef nonnull align 4 dereferenceable(4) %11)
  br label %if.end

if.else5:                                         ; preds = %lor.lhs.false
  %12 = load ptr, ptr %skeleton.addr, align 8
  %13 = load i32, ptr %lrgDiffCalUnit.addr, align 4
  %14 = load ptr, ptr %intervalPattern.addr, align 8
  %15 = load ptr, ptr %status.addr, align 8
  call void @_ZN6icu_7516DateIntervalInfo28setIntervalPatternInternallyERKNS_13UnicodeStringE19UCalendarDateFieldsS3_R10UErrorCode(ptr noundef nonnull align 8 dereferenceable(88) %this1, ptr noundef nonnull align 8 dereferenceable(64) %12, i32 noundef %13, ptr noundef nonnull align 8 dereferenceable(64) %14, ptr noundef nonnull align 4 dereferenceable(4) %15)
  br label %if.end

if.end:                                           ; preds = %if.else5, %if.then4
  br label %if.end6

if.end6:                                          ; preds = %if.end, %if.then
  ret void
}