; Function Attrs: mustprogress uwtable
define void @_ZN6icu_7516DateIntervalInfo18setIntervalPatternERKNS_13UnicodeStringE19UCalendarDateFieldsS3_R10UErrorCode(ptr nocapture noundef nonnull readonly align 8 dereferenceable(88) %this, ptr noundef nonnull align 8 dereferenceable(64) %skeleton, i32 noundef %lrgDiffCalUnit, ptr noundef nonnull align 8 dereferenceable(64) %intervalPattern, ptr noundef nonnull align 4 dereferenceable(4) %status) local_unnamed_addr #1 align 2 {
entry:
  %cmp = icmp eq i32 %lrgDiffCalUnit, 11
  br i1 %cmp, label %if.then, label %if.else

if.then:                                          ; preds = %entry
  tail call void @_ZN6icu_7516DateIntervalInfo28setIntervalPatternInternallyERKNS_13UnicodeStringE19UCalendarDateFieldsS3_R10UErrorCode(ptr noundef nonnull align 8 dereferenceable(88) %this, ptr noundef nonnull align 8 dereferenceable(64) %skeleton, i32 noundef 9, ptr noundef nonnull align 8 dereferenceable(64) %intervalPattern, ptr noundef nonnull align 4 dereferenceable(4) %status)
  br label %if.end6

if.else:                                          ; preds = %entry
  %0 = and i32 %lrgDiffCalUnit, -3
  %or.cond = icmp eq i32 %0, 5
  %.lrgDiffCalUnit = select i1 %or.cond, i32 5, i32 %lrgDiffCalUnit
  br label %if.end6

if.end6:                                          ; preds = %if.else, %if.then
  %.sink = phi i32 [ 10, %if.then ], [ %.lrgDiffCalUnit, %if.else ]
  tail call void @_ZN6icu_7516DateIntervalInfo28setIntervalPatternInternallyERKNS_13UnicodeStringE19UCalendarDateFieldsS3_R10UErrorCode(ptr noundef nonnull align 8 dereferenceable(88) %this, ptr noundef nonnull align 8 dereferenceable(64) %skeleton, i32 noundef %.sink, ptr noundef nonnull align 8 dereferenceable(64) %intervalPattern, ptr noundef nonnull align 4 dereferenceable(4) %status)
  ret void
}